; Function Attrs: mustprogress nounwind uwtable
define internal fastcc void @_ZNSt4pairIN5Yosys5RTLIL8IdStringEN12_GLOBAL__N_111cell_area_tEED2Ev(i32 %.0.val) unnamed_addr #3 align 2 personality ptr @__gxx_personality_v0 {
  %1 = load i8, ptr @_ZN5Yosys5RTLIL8IdString17destruct_guard_okE, align 1
  %2 = and i8 %1, 1
  %3 = icmp ne i8 %2, 0
  %4 = icmp ne i32 %.0.val, 0
  %or.cond.i.i = and i1 %4, %3
  br i1 %or.cond.i.i, label %5, label %_ZN5Yosys5RTLIL8IdStringD2Ev.exit

5:                                                ; preds = %0
  %6 = sext i32 %.0.val to i64
  %7 = load ptr, ptr @_ZN5Yosys5RTLIL8IdString24global_refcount_storage_E, align 8
  %8 = getelementptr inbounds i32, ptr %7, i64 %6
  %9 = load i32, ptr %8, align 4
  %10 = add nsw i32 %9, -1
  store i32 %10, ptr %8, align 4
  %11 = icmp sgt i32 %9, 1
  br i1 %11, label %_ZN5Yosys5RTLIL8IdStringD2Ev.exit, label %12

12:                                               ; preds = %5
  invoke void @_ZN5Yosys5RTLIL8IdString14free_referenceEi(i32 noundef %.0.val)
          to label %_ZN5Yosys5RTLIL8IdStringD2Ev.exit unwind label %13

13:                                               ; preds = %12
  %14 = landingpad { ptr, i32 }
          catch ptr null
  %15 = extractvalue { ptr, i32 } %14, 0
  tail call void @__clang_call_terminate(ptr %15) #28
  unreachable

_ZN5Yosys5RTLIL8IdStringD2Ev.exit:                ; preds = %0, %5, %12
  ret void
}